target datalayout = "e-m:e-p270:32:32-p271:32:32-p272:64:64-i64:64-i128:128-f80:128-n8:16:32:64-S128"
target triple = "x86_64-pc-linux-gnu"

%struct._lv_global_t = type { i8, i8, %struct.lv_ll_t, ptr, ptr, %struct.lv_ll_t, i8, i32, i32, ptr, %struct.lv_ll_t, ptr, %struct.lv_ll_t, ptr, ptr, i32, ptr, i8, i32, i32, ptr, i32, %struct.lv_timer_state_t, %struct.lv_anim_state_t, %struct.lv_tick_state_t, %struct._lv_draw_buf_handlers_t, %struct._lv_draw_buf_handlers_t, %struct._lv_draw_buf_handlers_t, %struct.lv_ll_t, ptr, ptr, %struct.lv_draw_global_info_t, [4 x %struct.lv_draw_sw_mask_radius_circle_dsc_t], ptr, ptr, ptr, %struct.lv_tlsf_state_t, %struct.lv_ll_t, ptr, ptr, %struct.lv_style_t, i64, ptr, i32, ptr }
%struct.lv_timer_state_t = type { %struct.lv_ll_t, i8, i8, i8, i8, i32, i8, i32, i32, i32, i32, ptr, ptr }
%struct.lv_anim_state_t = type { i8, i8, ptr, %struct.lv_ll_t }
%struct.lv_tick_state_t = type { i32, i8, ptr, ptr }
%struct._lv_draw_buf_handlers_t = type { ptr, ptr, ptr, ptr, ptr, ptr }
%struct.lv_draw_global_info_t = type { ptr, i32, i32, i32, i32, i8 }
%struct.lv_draw_sw_mask_radius_circle_dsc_t = type { ptr, ptr, ptr, ptr, i32, i32, i32 }
%struct.lv_tlsf_state_t = type { ptr, i64, i64, %struct.lv_ll_t }
%struct.lv_ll_t = type { i32, ptr, ptr }
%struct.lv_style_t = type { ptr, i32, i8 }

@lv_global = external global %struct._lv_global_t, align 8

; Function Attrs: nounwind uwtable
define void @lv_span_stack_init() #0 {
  %1 = alloca ptr, align 8
  call void @llvm.lifetime.start.p0(i64 8, ptr %1) #6
  %2 = call ptr @lv_malloc(i64 noundef 2568)
  store ptr %2, ptr getelementptr inbounds nuw (%struct._lv_global_t, ptr @lv_global, i32 0, i32 39), align 8, !tbaa !26
  store ptr %2, ptr %1, align 8, !tbaa !3
  br label %3

3:                                                ; preds = %0
  %4 = load ptr, ptr %1, align 8, !tbaa !3
  %5 = icmp ne ptr %4, null
  br i1 %5, label %12, label %6

6:                                                ; preds = %3
  br label %7

7:                                                ; preds = %6
  br label %8

8:                                                ; preds = %7
  br label %9

9:                                                ; preds = %8
  br label %10

10:                                               ; preds = %11, %9
  br label %11

11:                                               ; preds = %10
  br label %10

12:                                               ; preds = %3
  br label %13

13:                                               ; preds = %12
  br label %14

14:                                               ; preds = %13
  %15 = load ptr, ptr %1, align 8, !tbaa !3
  %16 = icmp ne ptr %15, null
  br i1 %16, label %21, label %17

17:                                               ; preds = %14
  br label %18

18:                                               ; preds = %17
  br label %19

19:                                               ; preds = %18
  br label %20

20:                                               ; preds = %19
  br label %21

21:                                               ; preds = %20, %14
  call void @llvm.lifetime.end.p0(i64 8, ptr %1) #6
  ret void
}