; Function Attrs: nounwind uwtable
define void @lv_span_stack_init() local_unnamed_addr #0 {
  %1 = tail call ptr @lv_malloc(i64 noundef 2568) #8
  store ptr %1, ptr getelementptr inbounds nuw (i8, ptr @lv_global, i64 864), align 8, !tbaa !26
  %.not = icmp eq ptr %1, null
  br i1 %.not, label %.preheader, label %2

.preheader:                                       ; preds = %0, %.preheader
  br label %.preheader

2:                                                ; preds = %0
  ret void
}